; Function Attrs: mustprogress uwtable
define void @_ZN3re216CharClassBuilder12AddCharClassEPS0_(ptr noundef nonnull align 8 dereferenceable(64) %this, ptr noundef readonly %cc) local_unnamed_addr #7 align 2 {
entry:
  %_M_left.i.i.i = getelementptr inbounds i8, ptr %cc, i64 40
  %0 = load ptr, ptr %_M_left.i.i.i, align 8
  %add.ptr.i.i.i = getelementptr inbounds i8, ptr %cc, i64 24
  %cmp.i.not6 = icmp eq ptr %0, %add.ptr.i.i.i
  br i1 %cmp.i.not6, label %for.end, label %for.body

for.body:                                         ; preds = %entry, %for.body
  %it.sroa.0.07 = phi ptr [ %call.i, %for.body ], [ %0, %entry ]
  %_M_storage.i.i = getelementptr inbounds i8, ptr %it.sroa.0.07, i64 32
  %1 = load i32, ptr %_M_storage.i.i, align 4
  %hi = getelementptr inbounds i8, ptr %it.sroa.0.07, i64 36
  %2 = load i32, ptr %hi, align 4
  %call7 = tail call noundef zeroext i1 @_ZN3re216CharClassBuilder8AddRangeEii(ptr noundef nonnull align 8 dereferenceable(64) %this, i32 noundef %1, i32 noundef %2)
  %call.i = tail call noundef ptr @_ZSt18_Rb_tree_incrementPKSt18_Rb_tree_node_base(ptr noundef %it.sroa.0.07) #31
  %cmp.i.not = icmp eq ptr %call.i, %add.ptr.i.i.i
  br i1 %cmp.i.not, label %for.end, label %for.body, !llvm.loop !33

for.end:                                          ; preds = %for.body, %entry
  ret void
}